
;CodeVisionAVR C Compiler V3.12 Advanced
;(C) Copyright 1998-2014 Pavel Haiduc, HP InfoTech s.r.l.
;http://www.hpinfotech.com

;Build configuration    : Debug
;Chip type              : ATmega16
;Program type           : Application
;Clock frequency        : 8.000000 MHz
;Memory model           : Small
;Optimize for           : Size
;(s)printf features     : int, width
;(s)scanf features      : int, width
;External RAM size      : 0
;Data Stack size        : 256 byte(s)
;Heap size              : 0 byte(s)
;Promote 'char' to 'int': Yes
;'char' is unsigned     : Yes
;8 bit enums            : Yes
;Global 'const' stored in FLASH: Yes
;Enhanced function parameter passing: Yes
;Enhanced core instructions: On
;Automatic register allocation for global variables: On
;Smart register allocation: On

	#define _MODEL_SMALL_

	#pragma AVRPART ADMIN PART_NAME ATmega16
	#pragma AVRPART MEMORY PROG_FLASH 16384
	#pragma AVRPART MEMORY EEPROM 512
	#pragma AVRPART MEMORY INT_SRAM SIZE 1024
	#pragma AVRPART MEMORY INT_SRAM START_ADDR 0x60

	#define CALL_SUPPORTED 1

	.LISTMAC
	.EQU UDRE=0x5
	.EQU RXC=0x7
	.EQU USR=0xB
	.EQU UDR=0xC
	.EQU SPSR=0xE
	.EQU SPDR=0xF
	.EQU EERE=0x0
	.EQU EEWE=0x1
	.EQU EEMWE=0x2
	.EQU EECR=0x1C
	.EQU EEDR=0x1D
	.EQU EEARL=0x1E
	.EQU EEARH=0x1F
	.EQU WDTCR=0x21
	.EQU MCUCR=0x35
	.EQU GICR=0x3B
	.EQU SPL=0x3D
	.EQU SPH=0x3E
	.EQU SREG=0x3F

	.DEF R0X0=R0
	.DEF R0X1=R1
	.DEF R0X2=R2
	.DEF R0X3=R3
	.DEF R0X4=R4
	.DEF R0X5=R5
	.DEF R0X6=R6
	.DEF R0X7=R7
	.DEF R0X8=R8
	.DEF R0X9=R9
	.DEF R0XA=R10
	.DEF R0XB=R11
	.DEF R0XC=R12
	.DEF R0XD=R13
	.DEF R0XE=R14
	.DEF R0XF=R15
	.DEF R0X10=R16
	.DEF R0X11=R17
	.DEF R0X12=R18
	.DEF R0X13=R19
	.DEF R0X14=R20
	.DEF R0X15=R21
	.DEF R0X16=R22
	.DEF R0X17=R23
	.DEF R0X18=R24
	.DEF R0X19=R25
	.DEF R0X1A=R26
	.DEF R0X1B=R27
	.DEF R0X1C=R28
	.DEF R0X1D=R29
	.DEF R0X1E=R30
	.DEF R0X1F=R31

	.EQU __SRAM_START=0x0060
	.EQU __SRAM_END=0x045F
	.EQU __DSTACK_SIZE=0x0100
	.EQU __HEAP_SIZE=0x0000
	.EQU __CLEAR_SRAM_SIZE=__SRAM_END-__SRAM_START+1

	.MACRO __CPD1N
	CPI  R30,LOW(@0)
	LDI  R26,HIGH(@0)
	CPC  R31,R26
	LDI  R26,BYTE3(@0)
	CPC  R22,R26
	LDI  R26,BYTE4(@0)
	CPC  R23,R26
	.ENDM

	.MACRO __CPD2N
	CPI  R26,LOW(@0)
	LDI  R30,HIGH(@0)
	CPC  R27,R30
	LDI  R30,BYTE3(@0)
	CPC  R24,R30
	LDI  R30,BYTE4(@0)
	CPC  R25,R30
	.ENDM

	.MACRO __CPWRR
	CP   R@0,R@2
	CPC  R@1,R@3
	.ENDM

	.MACRO __CPWRN
	CPI  R@0,LOW(@2)
	LDI  R30,HIGH(@2)
	CPC  R@1,R30
	.ENDM

	.MACRO __ADDB1MN
	SUBI R30,LOW(-@0-(@1))
	.ENDM

	.MACRO __ADDB2MN
	SUBI R26,LOW(-@0-(@1))
	.ENDM

	.MACRO __ADDW1MN
	SUBI R30,LOW(-@0-(@1))
	SBCI R31,HIGH(-@0-(@1))
	.ENDM

	.MACRO __ADDW2MN
	SUBI R26,LOW(-@0-(@1))
	SBCI R27,HIGH(-@0-(@1))
	.ENDM

	.MACRO __ADDW1FN
	SUBI R30,LOW(-2*@0-(@1))
	SBCI R31,HIGH(-2*@0-(@1))
	.ENDM

	.MACRO __ADDD1FN
	SUBI R30,LOW(-2*@0-(@1))
	SBCI R31,HIGH(-2*@0-(@1))
	SBCI R22,BYTE3(-2*@0-(@1))
	.ENDM

	.MACRO __ADDD1N
	SUBI R30,LOW(-@0)
	SBCI R31,HIGH(-@0)
	SBCI R22,BYTE3(-@0)
	SBCI R23,BYTE4(-@0)
	.ENDM

	.MACRO __ADDD2N
	SUBI R26,LOW(-@0)
	SBCI R27,HIGH(-@0)
	SBCI R24,BYTE3(-@0)
	SBCI R25,BYTE4(-@0)
	.ENDM

	.MACRO __SUBD1N
	SUBI R30,LOW(@0)
	SBCI R31,HIGH(@0)
	SBCI R22,BYTE3(@0)
	SBCI R23,BYTE4(@0)
	.ENDM

	.MACRO __SUBD2N
	SUBI R26,LOW(@0)
	SBCI R27,HIGH(@0)
	SBCI R24,BYTE3(@0)
	SBCI R25,BYTE4(@0)
	.ENDM

	.MACRO __ANDBMNN
	LDS  R30,@0+(@1)
	ANDI R30,LOW(@2)
	STS  @0+(@1),R30
	.ENDM

	.MACRO __ANDWMNN
	LDS  R30,@0+(@1)
	ANDI R30,LOW(@2)
	STS  @0+(@1),R30
	LDS  R30,@0+(@1)+1
	ANDI R30,HIGH(@2)
	STS  @0+(@1)+1,R30
	.ENDM

	.MACRO __ANDD1N
	ANDI R30,LOW(@0)
	ANDI R31,HIGH(@0)
	ANDI R22,BYTE3(@0)
	ANDI R23,BYTE4(@0)
	.ENDM

	.MACRO __ANDD2N
	ANDI R26,LOW(@0)
	ANDI R27,HIGH(@0)
	ANDI R24,BYTE3(@0)
	ANDI R25,BYTE4(@0)
	.ENDM

	.MACRO __ORBMNN
	LDS  R30,@0+(@1)
	ORI  R30,LOW(@2)
	STS  @0+(@1),R30
	.ENDM

	.MACRO __ORWMNN
	LDS  R30,@0+(@1)
	ORI  R30,LOW(@2)
	STS  @0+(@1),R30
	LDS  R30,@0+(@1)+1
	ORI  R30,HIGH(@2)
	STS  @0+(@1)+1,R30
	.ENDM

	.MACRO __ORD1N
	ORI  R30,LOW(@0)
	ORI  R31,HIGH(@0)
	ORI  R22,BYTE3(@0)
	ORI  R23,BYTE4(@0)
	.ENDM

	.MACRO __ORD2N
	ORI  R26,LOW(@0)
	ORI  R27,HIGH(@0)
	ORI  R24,BYTE3(@0)
	ORI  R25,BYTE4(@0)
	.ENDM

	.MACRO __DELAY_USB
	LDI  R24,LOW(@0)
__DELAY_USB_LOOP:
	DEC  R24
	BRNE __DELAY_USB_LOOP
	.ENDM

	.MACRO __DELAY_USW
	LDI  R24,LOW(@0)
	LDI  R25,HIGH(@0)
__DELAY_USW_LOOP:
	SBIW R24,1
	BRNE __DELAY_USW_LOOP
	.ENDM

	.MACRO __GETD1S
	LDD  R30,Y+@0
	LDD  R31,Y+@0+1
	LDD  R22,Y+@0+2
	LDD  R23,Y+@0+3
	.ENDM

	.MACRO __GETD2S
	LDD  R26,Y+@0
	LDD  R27,Y+@0+1
	LDD  R24,Y+@0+2
	LDD  R25,Y+@0+3
	.ENDM

	.MACRO __PUTD1S
	STD  Y+@0,R30
	STD  Y+@0+1,R31
	STD  Y+@0+2,R22
	STD  Y+@0+3,R23
	.ENDM

	.MACRO __PUTD2S
	STD  Y+@0,R26
	STD  Y+@0+1,R27
	STD  Y+@0+2,R24
	STD  Y+@0+3,R25
	.ENDM

	.MACRO __PUTDZ2
	STD  Z+@0,R26
	STD  Z+@0+1,R27
	STD  Z+@0+2,R24
	STD  Z+@0+3,R25
	.ENDM

	.MACRO __CLRD1S
	STD  Y+@0,R30
	STD  Y+@0+1,R30
	STD  Y+@0+2,R30
	STD  Y+@0+3,R30
	.ENDM

	.MACRO __POINTB1MN
	LDI  R30,LOW(@0+(@1))
	.ENDM

	.MACRO __POINTW1MN
	LDI  R30,LOW(@0+(@1))
	LDI  R31,HIGH(@0+(@1))
	.ENDM

	.MACRO __POINTD1M
	LDI  R30,LOW(@0)
	LDI  R31,HIGH(@0)
	LDI  R22,BYTE3(@0)
	LDI  R23,BYTE4(@0)
	.ENDM

	.MACRO __POINTW1FN
	LDI  R30,LOW(2*@0+(@1))
	LDI  R31,HIGH(2*@0+(@1))
	.ENDM

	.MACRO __POINTD1FN
	LDI  R30,LOW(2*@0+(@1))
	LDI  R31,HIGH(2*@0+(@1))
	LDI  R22,BYTE3(2*@0+(@1))
	LDI  R23,BYTE4(2*@0+(@1))
	.ENDM

	.MACRO __POINTB2MN
	LDI  R26,LOW(@0+(@1))
	.ENDM

	.MACRO __POINTW2MN
	LDI  R26,LOW(@0+(@1))
	LDI  R27,HIGH(@0+(@1))
	.ENDM

	.MACRO __POINTW2FN
	LDI  R26,LOW(2*@0+(@1))
	LDI  R27,HIGH(2*@0+(@1))
	.ENDM

	.MACRO __POINTD2FN
	LDI  R26,LOW(2*@0+(@1))
	LDI  R27,HIGH(2*@0+(@1))
	LDI  R24,BYTE3(2*@0+(@1))
	LDI  R25,BYTE4(2*@0+(@1))
	.ENDM

	.MACRO __POINTBRM
	LDI  R@0,LOW(@1)
	.ENDM

	.MACRO __POINTWRM
	LDI  R@0,LOW(@2)
	LDI  R@1,HIGH(@2)
	.ENDM

	.MACRO __POINTBRMN
	LDI  R@0,LOW(@1+(@2))
	.ENDM

	.MACRO __POINTWRMN
	LDI  R@0,LOW(@2+(@3))
	LDI  R@1,HIGH(@2+(@3))
	.ENDM

	.MACRO __POINTWRFN
	LDI  R@0,LOW(@2*2+(@3))
	LDI  R@1,HIGH(@2*2+(@3))
	.ENDM

	.MACRO __GETD1N
	LDI  R30,LOW(@0)
	LDI  R31,HIGH(@0)
	LDI  R22,BYTE3(@0)
	LDI  R23,BYTE4(@0)
	.ENDM

	.MACRO __GETD2N
	LDI  R26,LOW(@0)
	LDI  R27,HIGH(@0)
	LDI  R24,BYTE3(@0)
	LDI  R25,BYTE4(@0)
	.ENDM

	.MACRO __GETB1MN
	LDS  R30,@0+(@1)
	.ENDM

	.MACRO __GETB1HMN
	LDS  R31,@0+(@1)
	.ENDM

	.MACRO __GETW1MN
	LDS  R30,@0+(@1)
	LDS  R31,@0+(@1)+1
	.ENDM

	.MACRO __GETD1MN
	LDS  R30,@0+(@1)
	LDS  R31,@0+(@1)+1
	LDS  R22,@0+(@1)+2
	LDS  R23,@0+(@1)+3
	.ENDM

	.MACRO __GETBRMN
	LDS  R@0,@1+(@2)
	.ENDM

	.MACRO __GETWRMN
	LDS  R@0,@2+(@3)
	LDS  R@1,@2+(@3)+1
	.ENDM

	.MACRO __GETWRZ
	LDD  R@0,Z+@2
	LDD  R@1,Z+@2+1
	.ENDM

	.MACRO __GETD2Z
	LDD  R26,Z+@0
	LDD  R27,Z+@0+1
	LDD  R24,Z+@0+2
	LDD  R25,Z+@0+3
	.ENDM

	.MACRO __GETB2MN
	LDS  R26,@0+(@1)
	.ENDM

	.MACRO __GETW2MN
	LDS  R26,@0+(@1)
	LDS  R27,@0+(@1)+1
	.ENDM

	.MACRO __GETD2MN
	LDS  R26,@0+(@1)
	LDS  R27,@0+(@1)+1
	LDS  R24,@0+(@1)+2
	LDS  R25,@0+(@1)+3
	.ENDM

	.MACRO __PUTB1MN
	STS  @0+(@1),R30
	.ENDM

	.MACRO __PUTW1MN
	STS  @0+(@1),R30
	STS  @0+(@1)+1,R31
	.ENDM

	.MACRO __PUTD1MN
	STS  @0+(@1),R30
	STS  @0+(@1)+1,R31
	STS  @0+(@1)+2,R22
	STS  @0+(@1)+3,R23
	.ENDM

	.MACRO __PUTB1EN
	LDI  R26,LOW(@0+(@1))
	LDI  R27,HIGH(@0+(@1))
	CALL __EEPROMWRB
	.ENDM

	.MACRO __PUTW1EN
	LDI  R26,LOW(@0+(@1))
	LDI  R27,HIGH(@0+(@1))
	CALL __EEPROMWRW
	.ENDM

	.MACRO __PUTD1EN
	LDI  R26,LOW(@0+(@1))
	LDI  R27,HIGH(@0+(@1))
	CALL __EEPROMWRD
	.ENDM

	.MACRO __PUTBR0MN
	STS  @0+(@1),R0
	.ENDM

	.MACRO __PUTBMRN
	STS  @0+(@1),R@2
	.ENDM

	.MACRO __PUTWMRN
	STS  @0+(@1),R@2
	STS  @0+(@1)+1,R@3
	.ENDM

	.MACRO __PUTBZR
	STD  Z+@1,R@0
	.ENDM

	.MACRO __PUTWZR
	STD  Z+@2,R@0
	STD  Z+@2+1,R@1
	.ENDM

	.MACRO __GETW1R
	MOV  R30,R@0
	MOV  R31,R@1
	.ENDM

	.MACRO __GETW2R
	MOV  R26,R@0
	MOV  R27,R@1
	.ENDM

	.MACRO __GETWRN
	LDI  R@0,LOW(@2)
	LDI  R@1,HIGH(@2)
	.ENDM

	.MACRO __PUTW1R
	MOV  R@0,R30
	MOV  R@1,R31
	.ENDM

	.MACRO __PUTW2R
	MOV  R@0,R26
	MOV  R@1,R27
	.ENDM

	.MACRO __ADDWRN
	SUBI R@0,LOW(-@2)
	SBCI R@1,HIGH(-@2)
	.ENDM

	.MACRO __ADDWRR
	ADD  R@0,R@2
	ADC  R@1,R@3
	.ENDM

	.MACRO __SUBWRN
	SUBI R@0,LOW(@2)
	SBCI R@1,HIGH(@2)
	.ENDM

	.MACRO __SUBWRR
	SUB  R@0,R@2
	SBC  R@1,R@3
	.ENDM

	.MACRO __ANDWRN
	ANDI R@0,LOW(@2)
	ANDI R@1,HIGH(@2)
	.ENDM

	.MACRO __ANDWRR
	AND  R@0,R@2
	AND  R@1,R@3
	.ENDM

	.MACRO __ORWRN
	ORI  R@0,LOW(@2)
	ORI  R@1,HIGH(@2)
	.ENDM

	.MACRO __ORWRR
	OR   R@0,R@2
	OR   R@1,R@3
	.ENDM

	.MACRO __EORWRR
	EOR  R@0,R@2
	EOR  R@1,R@3
	.ENDM

	.MACRO __GETWRS
	LDD  R@0,Y+@2
	LDD  R@1,Y+@2+1
	.ENDM

	.MACRO __PUTBSR
	STD  Y+@1,R@0
	.ENDM

	.MACRO __PUTWSR
	STD  Y+@2,R@0
	STD  Y+@2+1,R@1
	.ENDM

	.MACRO __MOVEWRR
	MOV  R@0,R@2
	MOV  R@1,R@3
	.ENDM

	.MACRO __INWR
	IN   R@0,@2
	IN   R@1,@2+1
	.ENDM

	.MACRO __OUTWR
	OUT  @2+1,R@1
	OUT  @2,R@0
	.ENDM

	.MACRO __CALL1MN
	LDS  R30,@0+(@1)
	LDS  R31,@0+(@1)+1
	ICALL
	.ENDM

	.MACRO __CALL1FN
	LDI  R30,LOW(2*@0+(@1))
	LDI  R31,HIGH(2*@0+(@1))
	CALL __GETW1PF
	ICALL
	.ENDM

	.MACRO __CALL2EN
	PUSH R26
	PUSH R27
	LDI  R26,LOW(@0+(@1))
	LDI  R27,HIGH(@0+(@1))
	CALL __EEPROMRDW
	POP  R27
	POP  R26
	ICALL
	.ENDM

	.MACRO __CALL2EX
	SUBI R26,LOW(-@0)
	SBCI R27,HIGH(-@0)
	CALL __EEPROMRDD
	ICALL
	.ENDM

	.MACRO __GETW1STACK
	IN   R30,SPL
	IN   R31,SPH
	ADIW R30,@0+1
	LD   R0,Z+
	LD   R31,Z
	MOV  R30,R0
	.ENDM

	.MACRO __GETD1STACK
	IN   R30,SPL
	IN   R31,SPH
	ADIW R30,@0+1
	LD   R0,Z+
	LD   R1,Z+
	LD   R22,Z
	MOVW R30,R0
	.ENDM

	.MACRO __NBST
	BST  R@0,@1
	IN   R30,SREG
	LDI  R31,0x40
	EOR  R30,R31
	OUT  SREG,R30
	.ENDM


	.MACRO __PUTB1SN
	LDD  R26,Y+@0
	LDD  R27,Y+@0+1
	SUBI R26,LOW(-@1)
	SBCI R27,HIGH(-@1)
	ST   X,R30
	.ENDM

	.MACRO __PUTW1SN
	LDD  R26,Y+@0
	LDD  R27,Y+@0+1
	SUBI R26,LOW(-@1)
	SBCI R27,HIGH(-@1)
	ST   X+,R30
	ST   X,R31
	.ENDM

	.MACRO __PUTD1SN
	LDD  R26,Y+@0
	LDD  R27,Y+@0+1
	SUBI R26,LOW(-@1)
	SBCI R27,HIGH(-@1)
	CALL __PUTDP1
	.ENDM

	.MACRO __PUTB1SNS
	LDD  R26,Y+@0
	LDD  R27,Y+@0+1
	ADIW R26,@1
	ST   X,R30
	.ENDM

	.MACRO __PUTW1SNS
	LDD  R26,Y+@0
	LDD  R27,Y+@0+1
	ADIW R26,@1
	ST   X+,R30
	ST   X,R31
	.ENDM

	.MACRO __PUTD1SNS
	LDD  R26,Y+@0
	LDD  R27,Y+@0+1
	ADIW R26,@1
	CALL __PUTDP1
	.ENDM

	.MACRO __PUTB1PMN
	LDS  R26,@0
	LDS  R27,@0+1
	SUBI R26,LOW(-@1)
	SBCI R27,HIGH(-@1)
	ST   X,R30
	.ENDM

	.MACRO __PUTW1PMN
	LDS  R26,@0
	LDS  R27,@0+1
	SUBI R26,LOW(-@1)
	SBCI R27,HIGH(-@1)
	ST   X+,R30
	ST   X,R31
	.ENDM

	.MACRO __PUTD1PMN
	LDS  R26,@0
	LDS  R27,@0+1
	SUBI R26,LOW(-@1)
	SBCI R27,HIGH(-@1)
	CALL __PUTDP1
	.ENDM

	.MACRO __PUTB1PMNS
	LDS  R26,@0
	LDS  R27,@0+1
	ADIW R26,@1
	ST   X,R30
	.ENDM

	.MACRO __PUTW1PMNS
	LDS  R26,@0
	LDS  R27,@0+1
	ADIW R26,@1
	ST   X+,R30
	ST   X,R31
	.ENDM

	.MACRO __PUTD1PMNS
	LDS  R26,@0
	LDS  R27,@0+1
	ADIW R26,@1
	CALL __PUTDP1
	.ENDM

	.MACRO __PUTB1RN
	MOVW R26,R@0
	SUBI R26,LOW(-@1)
	SBCI R27,HIGH(-@1)
	ST   X,R30
	.ENDM

	.MACRO __PUTW1RN
	MOVW R26,R@0
	SUBI R26,LOW(-@1)
	SBCI R27,HIGH(-@1)
	ST   X+,R30
	ST   X,R31
	.ENDM

	.MACRO __PUTD1RN
	MOVW R26,R@0
	SUBI R26,LOW(-@1)
	SBCI R27,HIGH(-@1)
	CALL __PUTDP1
	.ENDM

	.MACRO __PUTB1RNS
	MOVW R26,R@0
	ADIW R26,@1
	ST   X,R30
	.ENDM

	.MACRO __PUTW1RNS
	MOVW R26,R@0
	ADIW R26,@1
	ST   X+,R30
	ST   X,R31
	.ENDM

	.MACRO __PUTD1RNS
	MOVW R26,R@0
	ADIW R26,@1
	CALL __PUTDP1
	.ENDM

	.MACRO __PUTB1RON
	MOV  R26,R@0
	MOV  R27,R@1
	SUBI R26,LOW(-@2)
	SBCI R27,HIGH(-@2)
	ST   X,R30
	.ENDM

	.MACRO __PUTW1RON
	MOV  R26,R@0
	MOV  R27,R@1
	SUBI R26,LOW(-@2)
	SBCI R27,HIGH(-@2)
	ST   X+,R30
	ST   X,R31
	.ENDM

	.MACRO __PUTD1RON
	MOV  R26,R@0
	MOV  R27,R@1
	SUBI R26,LOW(-@2)
	SBCI R27,HIGH(-@2)
	CALL __PUTDP1
	.ENDM

	.MACRO __PUTB1RONS
	MOV  R26,R@0
	MOV  R27,R@1
	ADIW R26,@2
	ST   X,R30
	.ENDM

	.MACRO __PUTW1RONS
	MOV  R26,R@0
	MOV  R27,R@1
	ADIW R26,@2
	ST   X+,R30
	ST   X,R31
	.ENDM

	.MACRO __PUTD1RONS
	MOV  R26,R@0
	MOV  R27,R@1
	ADIW R26,@2
	CALL __PUTDP1
	.ENDM


	.MACRO __GETB1SX
	MOVW R30,R28
	SUBI R30,LOW(-@0)
	SBCI R31,HIGH(-@0)
	LD   R30,Z
	.ENDM

	.MACRO __GETB1HSX
	MOVW R30,R28
	SUBI R30,LOW(-@0)
	SBCI R31,HIGH(-@0)
	LD   R31,Z
	.ENDM

	.MACRO __GETW1SX
	MOVW R30,R28
	SUBI R30,LOW(-@0)
	SBCI R31,HIGH(-@0)
	LD   R0,Z+
	LD   R31,Z
	MOV  R30,R0
	.ENDM

	.MACRO __GETD1SX
	MOVW R30,R28
	SUBI R30,LOW(-@0)
	SBCI R31,HIGH(-@0)
	LD   R0,Z+
	LD   R1,Z+
	LD   R22,Z+
	LD   R23,Z
	MOVW R30,R0
	.ENDM

	.MACRO __GETB2SX
	MOVW R26,R28
	SUBI R26,LOW(-@0)
	SBCI R27,HIGH(-@0)
	LD   R26,X
	.ENDM

	.MACRO __GETW2SX
	MOVW R26,R28
	SUBI R26,LOW(-@0)
	SBCI R27,HIGH(-@0)
	LD   R0,X+
	LD   R27,X
	MOV  R26,R0
	.ENDM

	.MACRO __GETD2SX
	MOVW R26,R28
	SUBI R26,LOW(-@0)
	SBCI R27,HIGH(-@0)
	LD   R0,X+
	LD   R1,X+
	LD   R24,X+
	LD   R25,X
	MOVW R26,R0
	.ENDM

	.MACRO __GETBRSX
	MOVW R30,R28
	SUBI R30,LOW(-@1)
	SBCI R31,HIGH(-@1)
	LD   R@0,Z
	.ENDM

	.MACRO __GETWRSX
	MOVW R30,R28
	SUBI R30,LOW(-@2)
	SBCI R31,HIGH(-@2)
	LD   R@0,Z+
	LD   R@1,Z
	.ENDM

	.MACRO __GETBRSX2
	MOVW R26,R28
	SUBI R26,LOW(-@1)
	SBCI R27,HIGH(-@1)
	LD   R@0,X
	.ENDM

	.MACRO __GETWRSX2
	MOVW R26,R28
	SUBI R26,LOW(-@2)
	SBCI R27,HIGH(-@2)
	LD   R@0,X+
	LD   R@1,X
	.ENDM

	.MACRO __LSLW8SX
	MOVW R30,R28
	SUBI R30,LOW(-@0)
	SBCI R31,HIGH(-@0)
	LD   R31,Z
	CLR  R30
	.ENDM

	.MACRO __PUTB1SX
	MOVW R26,R28
	SUBI R26,LOW(-@0)
	SBCI R27,HIGH(-@0)
	ST   X,R30
	.ENDM

	.MACRO __PUTW1SX
	MOVW R26,R28
	SUBI R26,LOW(-@0)
	SBCI R27,HIGH(-@0)
	ST   X+,R30
	ST   X,R31
	.ENDM

	.MACRO __PUTD1SX
	MOVW R26,R28
	SUBI R26,LOW(-@0)
	SBCI R27,HIGH(-@0)
	ST   X+,R30
	ST   X+,R31
	ST   X+,R22
	ST   X,R23
	.ENDM

	.MACRO __CLRW1SX
	MOVW R26,R28
	SUBI R26,LOW(-@0)
	SBCI R27,HIGH(-@0)
	ST   X+,R30
	ST   X,R30
	.ENDM

	.MACRO __CLRD1SX
	MOVW R26,R28
	SUBI R26,LOW(-@0)
	SBCI R27,HIGH(-@0)
	ST   X+,R30
	ST   X+,R30
	ST   X+,R30
	ST   X,R30
	.ENDM

	.MACRO __PUTB2SX
	MOVW R30,R28
	SUBI R30,LOW(-@0)
	SBCI R31,HIGH(-@0)
	ST   Z,R26
	.ENDM

	.MACRO __PUTW2SX
	MOVW R30,R28
	SUBI R30,LOW(-@0)
	SBCI R31,HIGH(-@0)
	ST   Z+,R26
	ST   Z,R27
	.ENDM

	.MACRO __PUTD2SX
	MOVW R30,R28
	SUBI R30,LOW(-@0)
	SBCI R31,HIGH(-@0)
	ST   Z+,R26
	ST   Z+,R27
	ST   Z+,R24
	ST   Z,R25
	.ENDM

	.MACRO __PUTBSRX
	MOVW R30,R28
	SUBI R30,LOW(-@1)
	SBCI R31,HIGH(-@1)
	ST   Z,R@0
	.ENDM

	.MACRO __PUTWSRX
	MOVW R30,R28
	SUBI R30,LOW(-@2)
	SBCI R31,HIGH(-@2)
	ST   Z+,R@0
	ST   Z,R@1
	.ENDM

	.MACRO __PUTB1SNX
	MOVW R26,R28
	SUBI R26,LOW(-@0)
	SBCI R27,HIGH(-@0)
	LD   R0,X+
	LD   R27,X
	MOV  R26,R0
	SUBI R26,LOW(-@1)
	SBCI R27,HIGH(-@1)
	ST   X,R30
	.ENDM

	.MACRO __PUTW1SNX
	MOVW R26,R28
	SUBI R26,LOW(-@0)
	SBCI R27,HIGH(-@0)
	LD   R0,X+
	LD   R27,X
	MOV  R26,R0
	SUBI R26,LOW(-@1)
	SBCI R27,HIGH(-@1)
	ST   X+,R30
	ST   X,R31
	.ENDM

	.MACRO __PUTD1SNX
	MOVW R26,R28
	SUBI R26,LOW(-@0)
	SBCI R27,HIGH(-@0)
	LD   R0,X+
	LD   R27,X
	MOV  R26,R0
	SUBI R26,LOW(-@1)
	SBCI R27,HIGH(-@1)
	ST   X+,R30
	ST   X+,R31
	ST   X+,R22
	ST   X,R23
	.ENDM

	.MACRO __MULBRR
	MULS R@0,R@1
	MOVW R30,R0
	.ENDM

	.MACRO __MULBRRU
	MUL  R@0,R@1
	MOVW R30,R0
	.ENDM

	.MACRO __MULBRR0
	MULS R@0,R@1
	.ENDM

	.MACRO __MULBRRU0
	MUL  R@0,R@1
	.ENDM

	.MACRO __MULBNWRU
	LDI  R26,@2
	MUL  R26,R@0
	MOVW R30,R0
	MUL  R26,R@1
	ADD  R31,R0
	.ENDM

;NAME DEFINITIONS FOR GLOBAL VARIABLES ALLOCATED TO REGISTERS
	.DEF _temperature=R4
	.DEF _temperature_msb=R5
	.DEF _humidity=R6
	.DEF _humidity_msb=R7
	.DEF __lcd_x=R9
	.DEF __lcd_y=R8
	.DEF __lcd_maxx=R11

	.CSEG
	.ORG 0x00

;START OF CODE MARKER
__START_OF_CODE:

;INTERRUPT VECTORS
	JMP  __RESET
	JMP  0x00
	JMP  0x00
	JMP  0x00
	JMP  0x00
	JMP  0x00
	JMP  0x00
	JMP  0x00
	JMP  0x00
	JMP  0x00
	JMP  0x00
	JMP  0x00
	JMP  0x00
	JMP  0x00
	JMP  0x00
	JMP  0x00
	JMP  0x00
	JMP  0x00
	JMP  0x00
	JMP  0x00
	JMP  0x00

_tbl10_G100:
	.DB  0x10,0x27,0xE8,0x3,0x64,0x0,0xA,0x0
	.DB  0x1,0x0
_tbl16_G100:
	.DB  0x0,0x10,0x0,0x1,0x10,0x0,0x1,0x0

;GLOBAL REGISTER VARIABLES INITIALIZATION
__REG_VARS:
	.DB  0x0,0x0,0x0,0x0

_0x0:
	.DB  0x48,0x75,0x6D,0x3A,0x20,0x0,0x25,0x0
	.DB  0x54,0x3A,0x20,0x0,0x43,0x0
_0x2020003:
	.DB  0x80,0xC0

__GLOBAL_INI_TBL:
	.DW  0x04
	.DW  0x04
	.DW  __REG_VARS*2

	.DW  0x02
	.DW  __base_y_G101
	.DW  _0x2020003*2

_0xFFFFFFFF:
	.DW  0

#define __GLOBAL_INI_TBL_PRESENT 1

__RESET:
	CLI
	CLR  R30
	OUT  EECR,R30

;INTERRUPT VECTORS ARE PLACED
;AT THE START OF FLASH
	LDI  R31,1
	OUT  GICR,R31
	OUT  GICR,R30
	OUT  MCUCR,R30

;CLEAR R2-R14
	LDI  R24,(14-2)+1
	LDI  R26,2
	CLR  R27
__CLEAR_REG:
	ST   X+,R30
	DEC  R24
	BRNE __CLEAR_REG

;CLEAR SRAM
	LDI  R24,LOW(__CLEAR_SRAM_SIZE)
	LDI  R25,HIGH(__CLEAR_SRAM_SIZE)
	LDI  R26,__SRAM_START
__CLEAR_SRAM:
	ST   X+,R30
	SBIW R24,1
	BRNE __CLEAR_SRAM

;GLOBAL VARIABLES INITIALIZATION
	LDI  R30,LOW(__GLOBAL_INI_TBL*2)
	LDI  R31,HIGH(__GLOBAL_INI_TBL*2)
__GLOBAL_INI_NEXT:
	LPM  R24,Z+
	LPM  R25,Z+
	SBIW R24,0
	BREQ __GLOBAL_INI_END
	LPM  R26,Z+
	LPM  R27,Z+
	LPM  R0,Z+
	LPM  R1,Z+
	MOVW R22,R30
	MOVW R30,R0
__GLOBAL_INI_LOOP:
	LPM  R0,Z+
	ST   X+,R0
	SBIW R24,1
	BRNE __GLOBAL_INI_LOOP
	MOVW R30,R22
	RJMP __GLOBAL_INI_NEXT
__GLOBAL_INI_END:

;HARDWARE STACK POINTER INITIALIZATION
	LDI  R30,LOW(__SRAM_END-__HEAP_SIZE)
	OUT  SPL,R30
	LDI  R30,HIGH(__SRAM_END-__HEAP_SIZE)
	OUT  SPH,R30

;DATA STACK POINTER INITIALIZATION
	LDI  R28,LOW(__SRAM_START+__DSTACK_SIZE)
	LDI  R29,HIGH(__SRAM_START+__DSTACK_SIZE)

	JMP  _main

	.ESEG
	.ORG 0

	.DSEG
	.ORG 0x160

	.CSEG
;#include <mega16.h>
	#ifndef __SLEEP_DEFINED__
	#define __SLEEP_DEFINED__
	.EQU __se_bit=0x40
	.EQU __sm_mask=0xB0
	.EQU __sm_powerdown=0x20
	.EQU __sm_powersave=0x30
	.EQU __sm_standby=0xA0
	.EQU __sm_ext_standby=0xB0
	.EQU __sm_adc_noise_red=0x10
	.SET power_ctrl_reg=mcucr
	#endif
;#include <delay.h>
;#include "include/dht.h"
;
;// Alphanumeric LCD functions
;#include <alcd.h>
;
;int temperature = 0;
;int humidity = 0;
;
;void readData(int number) {
; 0000 000B void readData(int number) {

	.CSEG
_readData:
; .FSTART _readData
; 0000 000C     int x;
; 0000 000D      x = number;
	ST   -Y,R27
	ST   -Y,R26
	ST   -Y,R17
	ST   -Y,R16
;	number -> Y+2
;	x -> R16,R17
	__GETWRS 16,17,2
; 0000 000E      lcd_putchar(x/10+48);
	MOVW R26,R16
	LDI  R30,LOW(10)
	LDI  R31,HIGH(10)
	CALL __DIVW21
	SUBI R30,-LOW(48)
	MOV  R26,R30
	CALL _lcd_putchar
; 0000 000F      x = x % 10;
	MOVW R26,R16
	LDI  R30,LOW(10)
	LDI  R31,HIGH(10)
	CALL __MODW21
	MOVW R16,R30
; 0000 0010      lcd_putchar(x+48);
	MOV  R26,R16
	SUBI R26,-LOW(48)
	CALL _lcd_putchar
; 0000 0011 }
	LDD  R17,Y+1
	LDD  R16,Y+0
	ADIW R28,4
	RET
; .FEND
;
;void main(void)
; 0000 0014 {
_main:
; .FSTART _main
; 0000 0015 // Declare your local variables here
; 0000 0016 
; 0000 0017 // Input/Output Ports initialization
; 0000 0018 // Port A initialization
; 0000 0019 // Function: Bit7=In Bit6=In Bit5=In Bit4=In Bit3=In Bit2=In Bit1=In Bit0=In
; 0000 001A DDRA=(0<<DDA7) | (0<<DDA6) | (0<<DDA5) | (0<<DDA4) | (0<<DDA3) | (0<<DDA2) | (0<<DDA1) | (0<<DDA0);
	LDI  R30,LOW(0)
	OUT  0x1A,R30
; 0000 001B // State: Bit7=T Bit6=T Bit5=T Bit4=T Bit3=T Bit2=T Bit1=T Bit0=T
; 0000 001C PORTA=(0<<PORTA7) | (0<<PORTA6) | (0<<PORTA5) | (0<<PORTA4) | (0<<PORTA3) | (0<<PORTA2) | (0<<PORTA1) | (0<<PORTA0);
	OUT  0x1B,R30
; 0000 001D 
; 0000 001E // Port B initialization
; 0000 001F // Function: Bit7=In Bit6=In Bit5=In Bit4=In Bit3=In Bit2=In Bit1=In Bit0=In
; 0000 0020 DDRB=(0<<DDB7) | (0<<DDB6) | (0<<DDB5) | (0<<DDB4) | (0<<DDB3) | (0<<DDB2) | (0<<DDB1) | (0<<DDB0);
	OUT  0x17,R30
; 0000 0021 // State: Bit7=T Bit6=T Bit5=T Bit4=T Bit3=T Bit2=T Bit1=T Bit0=T
; 0000 0022 PORTB=(0<<PORTB7) | (0<<PORTB6) | (0<<PORTB5) | (0<<PORTB4) | (0<<PORTB3) | (0<<PORTB2) | (0<<PORTB1) | (0<<PORTB0);
	OUT  0x18,R30
; 0000 0023 
; 0000 0024 // Port C initialization
; 0000 0025 // Function: Bit7=Out Bit6=Out Bit5=Out Bit4=Out Bit3=Out Bit2=Out Bit1=Out Bit0=Out
; 0000 0026 DDRC=(1<<DDC7) | (1<<DDC6) | (1<<DDC5) | (1<<DDC4) | (1<<DDC3) | (1<<DDC2) | (1<<DDC1) | (1<<DDC0);
	LDI  R30,LOW(255)
	OUT  0x14,R30
; 0000 0027 // State: Bit7=0 Bit6=0 Bit5=0 Bit4=0 Bit3=0 Bit2=0 Bit1=0 Bit0=0
; 0000 0028 PORTC=(0<<PORTC7) | (0<<PORTC6) | (0<<PORTC5) | (0<<PORTC4) | (0<<PORTC3) | (0<<PORTC2) | (0<<PORTC1) | (0<<PORTC0);
	LDI  R30,LOW(0)
	OUT  0x15,R30
; 0000 0029 
; 0000 002A // Port D initialization
; 0000 002B // Function: Bit7=In Bit6=In Bit5=In Bit4=In Bit3=In Bit2=In Bit1=In Bit0=In
; 0000 002C DDRD=(0<<DDD7) | (0<<DDD6) | (0<<DDD5) | (0<<DDD4) | (0<<DDD3) | (0<<DDD2) | (0<<DDD1) | (0<<DDD0);
	OUT  0x11,R30
; 0000 002D // State: Bit7=T Bit6=T Bit5=T Bit4=T Bit3=T Bit2=T Bit1=T Bit0=T
; 0000 002E PORTD=(0<<PORTD7) | (0<<PORTD6) | (0<<PORTD5) | (0<<PORTD4) | (0<<PORTD3) | (0<<PORTD2) | (0<<PORTD1) | (0<<PORTD0);
	OUT  0x12,R30
; 0000 002F 
; 0000 0030 // Timer/Counter 0 initialization
; 0000 0031 // Clock source: System Clock
; 0000 0032 // Clock value: Timer 0 Stopped
; 0000 0033 // Mode: Normal top=0xFF
; 0000 0034 // OC0 output: Disconnected
; 0000 0035 TCCR0=(0<<WGM00) | (0<<COM01) | (0<<COM00) | (0<<WGM01) | (0<<CS02) | (0<<CS01) | (0<<CS00);
	OUT  0x33,R30
; 0000 0036 TCNT0=0x00;
	OUT  0x32,R30
; 0000 0037 OCR0=0x00;
	OUT  0x3C,R30
; 0000 0038 
; 0000 0039 // Timer/Counter 1 initialization
; 0000 003A // Clock source: System Clock
; 0000 003B // Clock value: Timer1 Stopped
; 0000 003C // Mode: Normal top=0xFFFF
; 0000 003D // OC1A output: Disconnected
; 0000 003E // OC1B output: Disconnected
; 0000 003F // Noise Canceler: Off
; 0000 0040 // Input Capture on Falling Edge
; 0000 0041 // Timer1 Overflow Interrupt: Off
; 0000 0042 // Input Capture Interrupt: Off
; 0000 0043 // Compare A Match Interrupt: Off
; 0000 0044 // Compare B Match Interrupt: Off
; 0000 0045 TCCR1A=(0<<COM1A1) | (0<<COM1A0) | (0<<COM1B1) | (0<<COM1B0) | (0<<WGM11) | (0<<WGM10);
	OUT  0x2F,R30
; 0000 0046 TCCR1B=(0<<ICNC1) | (0<<ICES1) | (0<<WGM13) | (0<<WGM12) | (0<<CS12) | (0<<CS11) | (0<<CS10);
	OUT  0x2E,R30
; 0000 0047 TCNT1H=0x00;
	OUT  0x2D,R30
; 0000 0048 TCNT1L=0x00;
	OUT  0x2C,R30
; 0000 0049 ICR1H=0x00;
	OUT  0x27,R30
; 0000 004A ICR1L=0x00;
	OUT  0x26,R30
; 0000 004B OCR1AH=0x00;
	OUT  0x2B,R30
; 0000 004C OCR1AL=0x00;
	OUT  0x2A,R30
; 0000 004D OCR1BH=0x00;
	OUT  0x29,R30
; 0000 004E OCR1BL=0x00;
	OUT  0x28,R30
; 0000 004F 
; 0000 0050 // Timer/Counter 2 initialization
; 0000 0051 // Clock source: System Clock
; 0000 0052 // Clock value: Timer2 Stopped
; 0000 0053 // Mode: Normal top=0xFF
; 0000 0054 // OC2 output: Disconnected
; 0000 0055 ASSR=0<<AS2;
	OUT  0x22,R30
; 0000 0056 TCCR2=(0<<PWM2) | (0<<COM21) | (0<<COM20) | (0<<CTC2) | (0<<CS22) | (0<<CS21) | (0<<CS20);
	OUT  0x25,R30
; 0000 0057 TCNT2=0x00;
	OUT  0x24,R30
; 0000 0058 OCR2=0x00;
	OUT  0x23,R30
; 0000 0059 
; 0000 005A // Timer(s)/Counter(s) Interrupt(s) initialization
; 0000 005B TIMSK=(0<<OCIE2) | (0<<TOIE2) | (0<<TICIE1) | (0<<OCIE1A) | (0<<OCIE1B) | (0<<TOIE1) | (0<<OCIE0) | (0<<TOIE0);
	OUT  0x39,R30
; 0000 005C 
; 0000 005D // External Interrupt(s) initialization
; 0000 005E // INT0: Off
; 0000 005F // INT1: Off
; 0000 0060 // INT2: Off
; 0000 0061 MCUCR=(0<<ISC11) | (0<<ISC10) | (0<<ISC01) | (0<<ISC00);
	OUT  0x35,R30
; 0000 0062 MCUCSR=(0<<ISC2);
	OUT  0x34,R30
; 0000 0063 
; 0000 0064 // USART initialization
; 0000 0065 // USART disabled
; 0000 0066 UCSRB=(0<<RXCIE) | (0<<TXCIE) | (0<<UDRIE) | (0<<RXEN) | (0<<TXEN) | (0<<UCSZ2) | (0<<RXB8) | (0<<TXB8);
	OUT  0xA,R30
; 0000 0067 
; 0000 0068 // Analog Comparator initialization
; 0000 0069 // Analog Comparator: Off
; 0000 006A // The Analog Comparator's positive input is
; 0000 006B // connected to the AIN0 pin
; 0000 006C // The Analog Comparator's negative input is
; 0000 006D // connected to the AIN1 pin
; 0000 006E ACSR=(1<<ACD) | (0<<ACBG) | (0<<ACO) | (0<<ACI) | (0<<ACIE) | (0<<ACIC) | (0<<ACIS1) | (0<<ACIS0);
	LDI  R30,LOW(128)
	OUT  0x8,R30
; 0000 006F SFIOR=(0<<ACME);
	LDI  R30,LOW(0)
	OUT  0x30,R30
; 0000 0070 
; 0000 0071 // ADC initialization
; 0000 0072 // ADC disabled
; 0000 0073 ADCSRA=(0<<ADEN) | (0<<ADSC) | (0<<ADATE) | (0<<ADIF) | (0<<ADIE) | (0<<ADPS2) | (0<<ADPS1) | (0<<ADPS0);
	OUT  0x6,R30
; 0000 0074 
; 0000 0075 // SPI initialization
; 0000 0076 // SPI disabled
; 0000 0077 SPCR=(0<<SPIE) | (0<<SPE) | (0<<DORD) | (0<<MSTR) | (0<<CPOL) | (0<<CPHA) | (0<<SPR1) | (0<<SPR0);
	OUT  0xD,R30
; 0000 0078 
; 0000 0079 // TWI initialization
; 0000 007A // TWI disabled
; 0000 007B TWCR=(0<<TWEA) | (0<<TWSTA) | (0<<TWSTO) | (0<<TWEN) | (0<<TWIE);
	OUT  0x36,R30
; 0000 007C 
; 0000 007D // Alphanumeric LCD initialization
; 0000 007E // Connections are specified in the
; 0000 007F // Project|Configure|C Compiler|Libraries|Alphanumeric LCD menu:
; 0000 0080 // RS - PORTC Bit 0
; 0000 0081 // RD - PORTC Bit 2
; 0000 0082 // EN - PORTC Bit 1
; 0000 0083 // D4 - PORTC Bit 4
; 0000 0084 // D5 - PORTC Bit 5
; 0000 0085 // D6 - PORTC Bit 6
; 0000 0086 // D7 - PORTC Bit 7
; 0000 0087 // Characters/line: 16
; 0000 0088 lcd_init(16);
	LDI  R26,LOW(16)
	CALL _lcd_init
; 0000 0089 
; 0000 008A while (1)
_0x3:
; 0000 008B       {
; 0000 008C       delay_ms(1);
	LDI  R26,LOW(1)
	LDI  R27,0
	CALL _delay_ms
; 0000 008D       humidity = dht_gethumidity(0);
	LDI  R26,LOW(0)
	LDI  R27,0
	RCALL _dht_gethumidity
	MOVW R6,R30
; 0000 008E       temperature = dht_gettemperature(0);
	LDI  R26,LOW(0)
	LDI  R27,0
	RCALL _dht_gettemperature
	MOVW R4,R30
; 0000 008F       lcd_gotoxy(0,0);
	LDI  R30,LOW(0)
	ST   -Y,R30
	LDI  R26,LOW(0)
	CALL _lcd_gotoxy
; 0000 0090       lcd_putsf("Hum: ");
	__POINTW2FN _0x0,0
	CALL _lcd_putsf
; 0000 0091       readData(humidity);
	MOVW R26,R6
	RCALL _readData
; 0000 0092       lcd_putsf("%");
	__POINTW2FN _0x0,6
	CALL _lcd_putsf
; 0000 0093 
; 0000 0094       lcd_gotoxy(0,1);
	LDI  R30,LOW(0)
	ST   -Y,R30
	LDI  R26,LOW(1)
	CALL _lcd_gotoxy
; 0000 0095       lcd_putsf("T: ");
	__POINTW2FN _0x0,8
	CALL _lcd_putsf
; 0000 0096       readData(temperature);
	MOVW R26,R4
	RCALL _readData
; 0000 0097       lcd_putchar(223);
	LDI  R26,LOW(223)
	CALL _lcd_putchar
; 0000 0098       lcd_putsf("C");
	__POINTW2FN _0x0,12
	CALL _lcd_putsf
; 0000 0099       }
	RJMP _0x3
; 0000 009A }
_0x6:
	RJMP _0x6
; .FEND
;/*
;DHT Library 0x03
;
;copyright (c) Davide Gironi, 2012
;
;Released under GPLv3.
;Please refer to LICENSE file for licensing information.
;*/
;
;
;#include <stdio.h>
	#ifndef __SLEEP_DEFINED__
	#define __SLEEP_DEFINED__
	.EQU __se_bit=0x40
	.EQU __sm_mask=0xB0
	.EQU __sm_powerdown=0x20
	.EQU __sm_powersave=0x30
	.EQU __sm_standby=0xA0
	.EQU __sm_ext_standby=0xB0
	.EQU __sm_adc_noise_red=0x10
	.SET power_ctrl_reg=mcucr
	#endif
;#include <string.h>
;#include <io.h>
;#include <delay.h>
;
;#include "dht.h"
;
;/*
; * get data from sensor
; */
;#if DHT_FLOAT == 1
;int dht_getdata(float *temperature, float *humidity) {
; 0001 0016 int dht_getdata(float *temperature, float *humidity) {

	.CSEG
_dht_getdata:
; .FSTART _dht_getdata
; 0001 0017 #elif DHT_FLOAT == 0
; 0001 0018 int8_t dht_getdata(int8_t *temperature, int8_t *humidity) {
; 0001 0019 #endif
; 0001 001A 	int bits[5];
; 0001 001B 	int i,j = 0;
; 0001 001C 
; 0001 001D 	memset(bits, 0, sizeof(bits));
	ST   -Y,R27
	ST   -Y,R26
	SBIW R28,10
	CALL __SAVELOCR4
;	*temperature -> Y+16
;	*humidity -> Y+14
;	bits -> Y+4
;	i -> R16,R17
;	j -> R18,R19
	__GETWRN 18,19,0
	MOVW R30,R28
	ADIW R30,4
	ST   -Y,R31
	ST   -Y,R30
	LDI  R30,LOW(0)
	ST   -Y,R30
	LDI  R26,LOW(10)
	LDI  R27,0
	CALL _memset
; 0001 001E 
; 0001 001F 	//reset port
; 0001 0020 	DHT_DDR |= (1<<DHT_INPUTPIN); //output
	CALL SUBOPT_0x0
	CALL SUBOPT_0x1
; 0001 0021 	DHT_PORT |= (1<<DHT_INPUTPIN); //high
; 0001 0022 	delay_ms(100);
; 0001 0023 
; 0001 0024 	//send request
; 0001 0025 	DHT_PORT &= ~(1<<DHT_INPUTPIN); //low
	CALL SUBOPT_0x2
	COM  R30
	AND  R30,R1
	OUT  0x1B,R30
; 0001 0026 	#if DHT_TYPE == DHT_DHT11
; 0001 0027 	delay_ms(18);
; 0001 0028 	#elif DHT_TYPE == DHT_DHT22
; 0001 0029 	delay_us(500);
	__DELAY_USW 1000
; 0001 002A 	#endif
; 0001 002B 	DHT_PORT |= (1<<DHT_INPUTPIN); //high
	CALL SUBOPT_0x2
	OR   R30,R1
	OUT  0x1B,R30
; 0001 002C 	DHT_DDR &= ~(1<<DHT_INPUTPIN); //input
	CALL SUBOPT_0x0
	COM  R30
	AND  R30,R1
	OUT  0x1A,R30
; 0001 002D 	delay_us(40);
	__DELAY_USB 107
; 0001 002E 
; 0001 002F 	//check start condition 1
; 0001 0030 	if((DHT_PIN & (1<<DHT_INPUTPIN))) {
	CALL SUBOPT_0x3
	BREQ _0x20003
; 0001 0031 		return -1;
	RJMP _0x2080004
; 0001 0032 	}
; 0001 0033 	delay_us(80);
_0x20003:
	__DELAY_USB 213
; 0001 0034 	//check start condition 2
; 0001 0035 	if(!(DHT_PIN & (1<<DHT_INPUTPIN))) {
	CALL SUBOPT_0x3
	BRNE _0x20004
; 0001 0036 		return -1;
	RJMP _0x2080004
; 0001 0037 	}
; 0001 0038 	delay_us(80);
_0x20004:
	__DELAY_USB 213
; 0001 0039 
; 0001 003A 	//read the data
; 0001 003B 	for (j=0; j<5; j++) { //read 5 byte
	__GETWRN 18,19,0
_0x20006:
	__CPWRN 18,19,5
	BRLT PC+2
	RJMP _0x20007
; 0001 003C 	    int result=0;
; 0001 003D         int timeoutcounter = 0;
; 0001 003E 		for(i=0; i<8; i++) {//read every bit
	CALL SUBOPT_0x4
;	*temperature -> Y+20
;	*humidity -> Y+18
;	bits -> Y+8
;	result -> Y+2
;	timeoutcounter -> Y+0
	__GETWRN 16,17,0
_0x20009:
	__CPWRN 16,17,8
	BRGE _0x2000A
; 0001 003F 			timeoutcounter = 0;
	LDI  R30,LOW(0)
	STD  Y+0,R30
	STD  Y+0+1,R30
; 0001 0040 			while(!(DHT_PIN & (1<<DHT_INPUTPIN))) { //wait for an high input (non blocking)
_0x2000B:
	CALL SUBOPT_0x3
	BRNE _0x2000D
; 0001 0041 				timeoutcounter++;
	CALL SUBOPT_0x5
; 0001 0042 				if(timeoutcounter > DHT_TIMEOUT) {
	BRLT _0x2000E
; 0001 0043 					return -1; //timeout
	LDI  R30,LOW(65535)
	LDI  R31,HIGH(65535)
	ADIW R28,4
	RJMP _0x2080003
; 0001 0044 				}
; 0001 0045 			}
_0x2000E:
	RJMP _0x2000B
_0x2000D:
; 0001 0046 			delay_us(30);
	__DELAY_USB 80
; 0001 0047 			if(DHT_PIN & (1<<DHT_INPUTPIN)) //if input is high after 30 us, get result
	CALL SUBOPT_0x3
	BREQ _0x2000F
; 0001 0048 				result |= (1<<(7-i));
	LDI  R30,LOW(7)
	LDI  R31,HIGH(7)
	SUB  R30,R16
	SBC  R31,R17
	LDI  R26,LOW(1)
	LDI  R27,HIGH(1)
	CALL __LSLW12
	LDD  R26,Y+2
	LDD  R27,Y+2+1
	OR   R30,R26
	OR   R31,R27
	STD  Y+2,R30
	STD  Y+2+1,R31
; 0001 0049 			timeoutcounter = 0;
_0x2000F:
	LDI  R30,LOW(0)
	STD  Y+0,R30
	STD  Y+0+1,R30
; 0001 004A 			while(DHT_PIN & (1<<DHT_INPUTPIN)) { //wait until input get low (non blocking)
_0x20010:
	CALL SUBOPT_0x3
	BREQ _0x20012
; 0001 004B 				timeoutcounter++;
	CALL SUBOPT_0x5
; 0001 004C 				if(timeoutcounter > DHT_TIMEOUT) {
	BRLT _0x20013
; 0001 004D 					return -1; //timeout
	LDI  R30,LOW(65535)
	LDI  R31,HIGH(65535)
	ADIW R28,4
	RJMP _0x2080003
; 0001 004E 				}
; 0001 004F 			}
_0x20013:
	RJMP _0x20010
_0x20012:
; 0001 0050 		}
	__ADDWRN 16,17,1
	RJMP _0x20009
_0x2000A:
; 0001 0051 		bits[j] = result;
	MOVW R30,R18
	MOVW R26,R28
	ADIW R26,8
	LSL  R30
	ROL  R31
	ADD  R30,R26
	ADC  R31,R27
	LDD  R26,Y+2
	LDD  R27,Y+2+1
	STD  Z+0,R26
	STD  Z+1,R27
; 0001 0052 	}
	ADIW R28,4
	__ADDWRN 18,19,1
	RJMP _0x20006
_0x20007:
; 0001 0053 
; 0001 0054 	//reset port
; 0001 0055 	DHT_DDR |= (1<<DHT_INPUTPIN); //output
	CALL SUBOPT_0x0
	CALL SUBOPT_0x1
; 0001 0056 	DHT_PORT |= (1<<DHT_INPUTPIN); //low
; 0001 0057 	delay_ms(100);
; 0001 0058 
; 0001 0059 	//check checksum
; 0001 005A 	if ((int)(bits[0] + bits[1] + bits[2] + bits[3]) == bits[4]) {
	LDD  R30,Y+6
	LDD  R31,Y+6+1
	LDD  R26,Y+4
	LDD  R27,Y+4+1
	ADD  R30,R26
	ADC  R31,R27
	LDD  R26,Y+8
	LDD  R27,Y+8+1
	ADD  R30,R26
	ADC  R31,R27
	LDD  R26,Y+10
	LDD  R27,Y+10+1
	ADD  R26,R30
	ADC  R27,R31
	LDD  R30,Y+12
	LDD  R31,Y+12+1
	CP   R30,R26
	CPC  R31,R27
	BRNE _0x20014
; 0001 005B 		//return temperature and humidity
; 0001 005C 		#if DHT_TYPE == DHT_DHT11
; 0001 005D 		*temperature = bits[2];
; 0001 005E 		*humidity = bits[0];
; 0001 005F 		#elif DHT_TYPE == DHT_DHT22
; 0001 0060 		int rawhumidity = bits[0]<<8 | bits[1];
; 0001 0061 		int rawtemperature = bits[2]<<8 | bits[3];
; 0001 0062 		if(rawtemperature & 0x8000) {
	SBIW R28,4
;	*temperature -> Y+20
;	*humidity -> Y+18
;	bits -> Y+8
;	rawhumidity -> Y+2
;	rawtemperature -> Y+0
	LDD  R31,Y+8
	LDI  R30,LOW(0)
	LDD  R26,Y+10
	LDD  R27,Y+10+1
	OR   R30,R26
	OR   R31,R27
	STD  Y+2,R30
	STD  Y+2+1,R31
	LDD  R31,Y+12
	LDI  R30,LOW(0)
	LDD  R26,Y+14
	LDD  R27,Y+14+1
	OR   R30,R26
	OR   R31,R27
	ST   Y,R30
	STD  Y+1,R31
	LDD  R30,Y+1
	ANDI R30,LOW(0x80)
	BREQ _0x20015
; 0001 0063 			*temperature = (float)((rawtemperature & 0x7FFF) / 10.0) * -1.0;
	LD   R30,Y
	LDD  R31,Y+1
	ANDI R31,HIGH(0x7FFF)
	CALL SUBOPT_0x6
	__GETD2N 0xBF800000
	CALL __MULF12
	RJMP _0x20017
; 0001 0064 		} else {
_0x20015:
; 0001 0065 			*temperature = (float)(rawtemperature)/10.0;
	LD   R30,Y
	LDD  R31,Y+1
	CALL SUBOPT_0x6
_0x20017:
	LDD  R26,Y+20
	LDD  R27,Y+20+1
	CALL __PUTDP1
; 0001 0066 		}
; 0001 0067 		*humidity = (float)(rawhumidity)/10.0;
	LDD  R30,Y+2
	LDD  R31,Y+2+1
	CALL SUBOPT_0x6
	LDD  R26,Y+18
	LDD  R27,Y+18+1
	CALL __PUTDP1
; 0001 0068 		#endif
; 0001 0069 		return 0;
	LDI  R30,LOW(0)
	LDI  R31,HIGH(0)
	ADIW R28,4
	RJMP _0x2080003
; 0001 006A 	}
; 0001 006B 
; 0001 006C 	return -1;
_0x20014:
_0x2080004:
	LDI  R30,LOW(65535)
	LDI  R31,HIGH(65535)
_0x2080003:
	CALL __LOADLOCR4
	ADIW R28,18
	RET
; 0001 006D }
; .FEND
;
;/*
; * get temperature
; */
;#if DHT_FLOAT == 1
;int dht_gettemperature(float *temperature) {
; 0001 0073 int dht_gettemperature(float *temperature) {
_dht_gettemperature:
; .FSTART _dht_gettemperature
; 0001 0074 	float humidity = 0;
; 0001 0075 #elif DHT_FLOAT == 0
; 0001 0076 int dht_gettemperature(int *temperature) {
; 0001 0077 	int humidity = 0;
; 0001 0078 #endif
; 0001 0079 	return dht_getdata(temperature, &humidity);
	ST   -Y,R27
	ST   -Y,R26
	CALL SUBOPT_0x4
;	*temperature -> Y+4
;	humidity -> Y+0
	LDD  R30,Y+4
	LDD  R31,Y+4+1
	ST   -Y,R31
	ST   -Y,R30
	MOVW R26,R28
	ADIW R26,2
	RJMP _0x2080002
; 0001 007A }
; .FEND
;
;/*
; * get humidity
; */
;#if DHT_FLOAT == 1
;int dht_gethumidity(float *humidity) {
; 0001 0080 int dht_gethumidity(float *humidity) {
_dht_gethumidity:
; .FSTART _dht_gethumidity
; 0001 0081 	float temperature = 0;
; 0001 0082 #elif DHT_FLOAT == 0
; 0001 0083 int dht_gethumidity(int *humidity) {
; 0001 0084 	int temperature = 0;
; 0001 0085 #endif
; 0001 0086 	return dht_getdata(&temperature, humidity);
	ST   -Y,R27
	ST   -Y,R26
	CALL SUBOPT_0x4
;	*humidity -> Y+4
;	temperature -> Y+0
	MOVW R30,R28
	ST   -Y,R31
	ST   -Y,R30
	LDD  R26,Y+6
	LDD  R27,Y+6+1
_0x2080002:
	RCALL _dht_getdata
	ADIW R28,6
	RET
; 0001 0087 }
; .FEND
;
;/*
; * get temperature and humidity
; */
;#if DHT_FLOAT == 1
;int dht_gettemperaturehumidity(float *temperature, float *humidity) {
; 0001 008D int dht_gettemperaturehumidity(float *temperature, float *humidity) {
; 0001 008E #elif DHT_FLOAT == 0
; 0001 008F 	int dht_gettemperaturehumidity(int *temperature, int *humidity) {
; 0001 0090 #endif
; 0001 0091 	return dht_getdata(temperature, humidity);
;	*temperature -> Y+2
;	*humidity -> Y+0
; 0001 0092 }
;
;
	#ifndef __SLEEP_DEFINED__
	#define __SLEEP_DEFINED__
	.EQU __se_bit=0x40
	.EQU __sm_mask=0xB0
	.EQU __sm_powerdown=0x20
	.EQU __sm_powersave=0x30
	.EQU __sm_standby=0xA0
	.EQU __sm_ext_standby=0xB0
	.EQU __sm_adc_noise_red=0x10
	.SET power_ctrl_reg=mcucr
	#endif

	.CSEG
	#ifndef __SLEEP_DEFINED__
	#define __SLEEP_DEFINED__
	.EQU __se_bit=0x40
	.EQU __sm_mask=0xB0
	.EQU __sm_powerdown=0x20
	.EQU __sm_powersave=0x30
	.EQU __sm_standby=0xA0
	.EQU __sm_ext_standby=0xB0
	.EQU __sm_adc_noise_red=0x10
	.SET power_ctrl_reg=mcucr
	#endif

	.DSEG

	.CSEG
__lcd_write_nibble_G101:
; .FSTART __lcd_write_nibble_G101
	ST   -Y,R26
	IN   R30,0x15
	ANDI R30,LOW(0xF)
	MOV  R26,R30
	LD   R30,Y
	ANDI R30,LOW(0xF0)
	OR   R30,R26
	OUT  0x15,R30
	__DELAY_USB 13
	SBI  0x15,1
	__DELAY_USB 13
	CBI  0x15,1
	__DELAY_USB 13
	RJMP _0x2080001
; .FEND
__lcd_write_data:
; .FSTART __lcd_write_data
	ST   -Y,R26
	LD   R26,Y
	RCALL __lcd_write_nibble_G101
    ld    r30,y
    swap  r30
    st    y,r30
	LD   R26,Y
	RCALL __lcd_write_nibble_G101
	__DELAY_USB 133
	RJMP _0x2080001
; .FEND
_lcd_gotoxy:
; .FSTART _lcd_gotoxy
	ST   -Y,R26
	LD   R30,Y
	LDI  R31,0
	SUBI R30,LOW(-__base_y_G101)
	SBCI R31,HIGH(-__base_y_G101)
	LD   R30,Z
	LDD  R26,Y+1
	ADD  R26,R30
	RCALL __lcd_write_data
	LDD  R9,Y+1
	LDD  R8,Y+0
	ADIW R28,2
	RET
; .FEND
_lcd_clear:
; .FSTART _lcd_clear
	LDI  R26,LOW(2)
	CALL SUBOPT_0x7
	LDI  R26,LOW(12)
	RCALL __lcd_write_data
	LDI  R26,LOW(1)
	CALL SUBOPT_0x7
	LDI  R30,LOW(0)
	MOV  R8,R30
	MOV  R9,R30
	RET
; .FEND
_lcd_putchar:
; .FSTART _lcd_putchar
	ST   -Y,R26
	LD   R26,Y
	CPI  R26,LOW(0xA)
	BREQ _0x2020005
	CP   R9,R11
	BRLO _0x2020004
_0x2020005:
	LDI  R30,LOW(0)
	ST   -Y,R30
	INC  R8
	MOV  R26,R8
	RCALL _lcd_gotoxy
	LD   R26,Y
	CPI  R26,LOW(0xA)
	BRNE _0x2020007
	RJMP _0x2080001
_0x2020007:
_0x2020004:
	INC  R9
	SBI  0x15,0
	LD   R26,Y
	RCALL __lcd_write_data
	CBI  0x15,0
	RJMP _0x2080001
; .FEND
_lcd_putsf:
; .FSTART _lcd_putsf
	ST   -Y,R27
	ST   -Y,R26
	ST   -Y,R17
_0x202000B:
	LDD  R30,Y+1
	LDD  R31,Y+1+1
	ADIW R30,1
	STD  Y+1,R30
	STD  Y+1+1,R31
	SBIW R30,1
	LPM  R30,Z
	MOV  R17,R30
	CPI  R30,0
	BREQ _0x202000D
	MOV  R26,R17
	RCALL _lcd_putchar
	RJMP _0x202000B
_0x202000D:
	LDD  R17,Y+0
	ADIW R28,3
	RET
; .FEND
_lcd_init:
; .FSTART _lcd_init
	ST   -Y,R26
	IN   R30,0x14
	ORI  R30,LOW(0xF0)
	OUT  0x14,R30
	SBI  0x14,1
	SBI  0x14,0
	SBI  0x14,2
	CBI  0x15,1
	CBI  0x15,0
	CBI  0x15,2
	LDD  R11,Y+0
	LD   R30,Y
	SUBI R30,-LOW(128)
	__PUTB1MN __base_y_G101,2
	LD   R30,Y
	SUBI R30,-LOW(192)
	__PUTB1MN __base_y_G101,3
	LDI  R26,LOW(20)
	LDI  R27,0
	CALL _delay_ms
	CALL SUBOPT_0x8
	CALL SUBOPT_0x8
	CALL SUBOPT_0x8
	LDI  R26,LOW(32)
	RCALL __lcd_write_nibble_G101
	__DELAY_USW 200
	LDI  R26,LOW(40)
	RCALL __lcd_write_data
	LDI  R26,LOW(4)
	RCALL __lcd_write_data
	LDI  R26,LOW(133)
	RCALL __lcd_write_data
	LDI  R26,LOW(6)
	RCALL __lcd_write_data
	RCALL _lcd_clear
_0x2080001:
	ADIW R28,1
	RET
; .FEND

	.CSEG
_memset:
; .FSTART _memset
	ST   -Y,R27
	ST   -Y,R26
    ldd  r27,y+1
    ld   r26,y
    adiw r26,0
    breq memset1
    ldd  r31,y+4
    ldd  r30,y+3
    ldd  r22,y+2
memset0:
    st   z+,r22
    sbiw r26,1
    brne memset0
memset1:
    ldd  r30,y+3
    ldd  r31,y+4
	ADIW R28,5
	RET
; .FEND

	.CSEG

	.DSEG
__base_y_G101:
	.BYTE 0x4

	.CSEG
;OPTIMIZER ADDED SUBROUTINE, CALLED 3 TIMES, CODE SIZE REDUCTION:7 WORDS
SUBOPT_0x0:
	IN   R1,26
	LDI  R30,0
	SBIC 0x1B,0
	LDI  R30,1
	LDI  R26,LOW(1)
	CALL __LSLB12
	RET

;OPTIMIZER ADDED SUBROUTINE, CALLED 2 TIMES, CODE SIZE REDUCTION:10 WORDS
SUBOPT_0x1:
	OR   R30,R1
	OUT  0x1A,R30
	IN   R1,27
	LDI  R30,0
	SBIC 0x1B,0
	LDI  R30,1
	LDI  R26,LOW(1)
	CALL __LSLB12
	OR   R30,R1
	OUT  0x1B,R30
	LDI  R26,LOW(100)
	LDI  R27,0
	JMP  _delay_ms

;OPTIMIZER ADDED SUBROUTINE, CALLED 2 TIMES, CODE SIZE REDUCTION:2 WORDS
SUBOPT_0x2:
	IN   R1,27
	LDI  R30,0
	SBIC 0x1B,0
	LDI  R30,1
	LDI  R26,LOW(1)
	CALL __LSLB12
	RET

;OPTIMIZER ADDED SUBROUTINE, CALLED 5 TIMES, CODE SIZE REDUCTION:41 WORDS
SUBOPT_0x3:
	IN   R1,25
	LDI  R30,0
	SBIC 0x1B,0
	LDI  R30,1
	LDI  R26,LOW(1)
	LDI  R27,HIGH(1)
	CALL __LSLW12
	MOV  R26,R1
	LDI  R27,0
	AND  R30,R26
	AND  R31,R27
	SBIW R30,0
	RET

;OPTIMIZER ADDED SUBROUTINE, CALLED 3 TIMES, CODE SIZE REDUCTION:11 WORDS
SUBOPT_0x4:
	SBIW R28,4
	LDI  R30,LOW(0)
	ST   Y,R30
	STD  Y+1,R30
	STD  Y+2,R30
	STD  Y+3,R30
	RET

;OPTIMIZER ADDED SUBROUTINE, CALLED 2 TIMES, CODE SIZE REDUCTION:5 WORDS
SUBOPT_0x5:
	LD   R30,Y
	LDD  R31,Y+1
	ADIW R30,1
	ST   Y,R30
	STD  Y+1,R31
	LD   R26,Y
	LDD  R27,Y+1
	CPI  R26,LOW(0xC9)
	LDI  R30,HIGH(0xC9)
	CPC  R27,R30
	RET

;OPTIMIZER ADDED SUBROUTINE, CALLED 3 TIMES, CODE SIZE REDUCTION:17 WORDS
SUBOPT_0x6:
	CALL __CWD1
	CALL __CDF1
	MOVW R26,R30
	MOVW R24,R22
	__GETD1N 0x41200000
	CALL __DIVF21
	RET

;OPTIMIZER ADDED SUBROUTINE, CALLED 2 TIMES, CODE SIZE REDUCTION:1 WORDS
SUBOPT_0x7:
	CALL __lcd_write_data
	LDI  R26,LOW(3)
	LDI  R27,0
	JMP  _delay_ms

;OPTIMIZER ADDED SUBROUTINE, CALLED 3 TIMES, CODE SIZE REDUCTION:7 WORDS
SUBOPT_0x8:
	LDI  R26,LOW(48)
	CALL __lcd_write_nibble_G101
	__DELAY_USW 200
	RET


	.CSEG
_delay_ms:
	adiw r26,0
	breq __delay_ms1
__delay_ms0:
	__DELAY_USW 0x7D0
	wdr
	sbiw r26,1
	brne __delay_ms0
__delay_ms1:
	ret

__ROUND_REPACK:
	TST  R21
	BRPL __REPACK
	CPI  R21,0x80
	BRNE __ROUND_REPACK0
	SBRS R30,0
	RJMP __REPACK
__ROUND_REPACK0:
	ADIW R30,1
	ADC  R22,R25
	ADC  R23,R25
	BRVS __REPACK1

__REPACK:
	LDI  R21,0x80
	EOR  R21,R23
	BRNE __REPACK0
	PUSH R21
	RJMP __ZERORES
__REPACK0:
	CPI  R21,0xFF
	BREQ __REPACK1
	LSL  R22
	LSL  R0
	ROR  R21
	ROR  R22
	MOV  R23,R21
	RET
__REPACK1:
	PUSH R21
	TST  R0
	BRMI __REPACK2
	RJMP __MAXRES
__REPACK2:
	RJMP __MINRES

__UNPACK:
	LDI  R21,0x80
	MOV  R1,R25
	AND  R1,R21
	LSL  R24
	ROL  R25
	EOR  R25,R21
	LSL  R21
	ROR  R24

__UNPACK1:
	LDI  R21,0x80
	MOV  R0,R23
	AND  R0,R21
	LSL  R22
	ROL  R23
	EOR  R23,R21
	LSL  R21
	ROR  R22
	RET

__CDF1U:
	SET
	RJMP __CDF1U0
__CDF1:
	CLT
__CDF1U0:
	SBIW R30,0
	SBCI R22,0
	SBCI R23,0
	BREQ __CDF10
	CLR  R0
	BRTS __CDF11
	TST  R23
	BRPL __CDF11
	COM  R0
	RCALL __ANEGD1
__CDF11:
	MOV  R1,R23
	LDI  R23,30
	TST  R1
__CDF12:
	BRMI __CDF13
	DEC  R23
	LSL  R30
	ROL  R31
	ROL  R22
	ROL  R1
	RJMP __CDF12
__CDF13:
	MOV  R30,R31
	MOV  R31,R22
	MOV  R22,R1
	PUSH R21
	RCALL __REPACK
	POP  R21
__CDF10:
	RET

__ZERORES:
	CLR  R30
	CLR  R31
	CLR  R22
	CLR  R23
	POP  R21
	RET

__MINRES:
	SER  R30
	SER  R31
	LDI  R22,0x7F
	SER  R23
	POP  R21
	RET

__MAXRES:
	SER  R30
	SER  R31
	LDI  R22,0x7F
	LDI  R23,0x7F
	POP  R21
	RET

__MULF12:
	PUSH R21
	RCALL __UNPACK
	CPI  R23,0x80
	BREQ __ZERORES
	CPI  R25,0x80
	BREQ __ZERORES
	EOR  R0,R1
	SEC
	ADC  R23,R25
	BRVC __MULF124
	BRLT __ZERORES
__MULF125:
	TST  R0
	BRMI __MINRES
	RJMP __MAXRES
__MULF124:
	PUSH R0
	PUSH R17
	PUSH R18
	PUSH R19
	PUSH R20
	CLR  R17
	CLR  R18
	CLR  R25
	MUL  R22,R24
	MOVW R20,R0
	MUL  R24,R31
	MOV  R19,R0
	ADD  R20,R1
	ADC  R21,R25
	MUL  R22,R27
	ADD  R19,R0
	ADC  R20,R1
	ADC  R21,R25
	MUL  R24,R30
	RCALL __MULF126
	MUL  R27,R31
	RCALL __MULF126
	MUL  R22,R26
	RCALL __MULF126
	MUL  R27,R30
	RCALL __MULF127
	MUL  R26,R31
	RCALL __MULF127
	MUL  R26,R30
	ADD  R17,R1
	ADC  R18,R25
	ADC  R19,R25
	ADC  R20,R25
	ADC  R21,R25
	MOV  R30,R19
	MOV  R31,R20
	MOV  R22,R21
	MOV  R21,R18
	POP  R20
	POP  R19
	POP  R18
	POP  R17
	POP  R0
	TST  R22
	BRMI __MULF122
	LSL  R21
	ROL  R30
	ROL  R31
	ROL  R22
	RJMP __MULF123
__MULF122:
	INC  R23
	BRVS __MULF125
__MULF123:
	RCALL __ROUND_REPACK
	POP  R21
	RET

__MULF127:
	ADD  R17,R0
	ADC  R18,R1
	ADC  R19,R25
	RJMP __MULF128
__MULF126:
	ADD  R18,R0
	ADC  R19,R1
__MULF128:
	ADC  R20,R25
	ADC  R21,R25
	RET

__DIVF21:
	PUSH R21
	RCALL __UNPACK
	CPI  R23,0x80
	BRNE __DIVF210
	TST  R1
__DIVF211:
	BRPL __DIVF219
	RJMP __MINRES
__DIVF219:
	RJMP __MAXRES
__DIVF210:
	CPI  R25,0x80
	BRNE __DIVF218
__DIVF217:
	RJMP __ZERORES
__DIVF218:
	EOR  R0,R1
	SEC
	SBC  R25,R23
	BRVC __DIVF216
	BRLT __DIVF217
	TST  R0
	RJMP __DIVF211
__DIVF216:
	MOV  R23,R25
	PUSH R17
	PUSH R18
	PUSH R19
	PUSH R20
	CLR  R1
	CLR  R17
	CLR  R18
	CLR  R19
	CLR  R20
	CLR  R21
	LDI  R25,32
__DIVF212:
	CP   R26,R30
	CPC  R27,R31
	CPC  R24,R22
	CPC  R20,R17
	BRLO __DIVF213
	SUB  R26,R30
	SBC  R27,R31
	SBC  R24,R22
	SBC  R20,R17
	SEC
	RJMP __DIVF214
__DIVF213:
	CLC
__DIVF214:
	ROL  R21
	ROL  R18
	ROL  R19
	ROL  R1
	ROL  R26
	ROL  R27
	ROL  R24
	ROL  R20
	DEC  R25
	BRNE __DIVF212
	MOVW R30,R18
	MOV  R22,R1
	POP  R20
	POP  R19
	POP  R18
	POP  R17
	TST  R22
	BRMI __DIVF215
	LSL  R21
	ROL  R30
	ROL  R31
	ROL  R22
	DEC  R23
	BRVS __DIVF217
__DIVF215:
	RCALL __ROUND_REPACK
	POP  R21
	RET

__ANEGW1:
	NEG  R31
	NEG  R30
	SBCI R31,0
	RET

__ANEGD1:
	COM  R31
	COM  R22
	COM  R23
	NEG  R30
	SBCI R31,-1
	SBCI R22,-1
	SBCI R23,-1
	RET

__LSLB12:
	TST  R30
	MOV  R0,R30
	MOV  R30,R26
	BREQ __LSLB12R
__LSLB12L:
	LSL  R30
	DEC  R0
	BRNE __LSLB12L
__LSLB12R:
	RET

__LSLW12:
	TST  R30
	MOV  R0,R30
	MOVW R30,R26
	BREQ __LSLW12R
__LSLW12L:
	LSL  R30
	ROL  R31
	DEC  R0
	BRNE __LSLW12L
__LSLW12R:
	RET

__CWD1:
	MOV  R22,R31
	ADD  R22,R22
	SBC  R22,R22
	MOV  R23,R22
	RET

__DIVW21U:
	CLR  R0
	CLR  R1
	LDI  R25,16
__DIVW21U1:
	LSL  R26
	ROL  R27
	ROL  R0
	ROL  R1
	SUB  R0,R30
	SBC  R1,R31
	BRCC __DIVW21U2
	ADD  R0,R30
	ADC  R1,R31
	RJMP __DIVW21U3
__DIVW21U2:
	SBR  R26,1
__DIVW21U3:
	DEC  R25
	BRNE __DIVW21U1
	MOVW R30,R26
	MOVW R26,R0
	RET

__DIVW21:
	RCALL __CHKSIGNW
	RCALL __DIVW21U
	BRTC __DIVW211
	RCALL __ANEGW1
__DIVW211:
	RET

__MODW21:
	CLT
	SBRS R27,7
	RJMP __MODW211
	COM  R26
	COM  R27
	ADIW R26,1
	SET
__MODW211:
	SBRC R31,7
	RCALL __ANEGW1
	RCALL __DIVW21U
	MOVW R30,R26
	BRTC __MODW212
	RCALL __ANEGW1
__MODW212:
	RET

__CHKSIGNW:
	CLT
	SBRS R31,7
	RJMP __CHKSW1
	RCALL __ANEGW1
	SET
__CHKSW1:
	SBRS R27,7
	RJMP __CHKSW2
	COM  R26
	COM  R27
	ADIW R26,1
	BLD  R0,0
	INC  R0
	BST  R0,0
__CHKSW2:
	RET

__PUTDP1:
	ST   X+,R30
	ST   X+,R31
	ST   X+,R22
	ST   X,R23
	RET

__SAVELOCR4:
	ST   -Y,R19
__SAVELOCR3:
	ST   -Y,R18
__SAVELOCR2:
	ST   -Y,R17
	ST   -Y,R16
	RET

__LOADLOCR4:
	LDD  R19,Y+3
__LOADLOCR3:
	LDD  R18,Y+2
__LOADLOCR2:
	LDD  R17,Y+1
	LD   R16,Y
	RET

;END OF CODE MARKER
__END_OF_CODE:
